target datalayout = "e-m:e-p270:32:32-p271:32:32-p272:64:64-i64:64-i128:128-f80:128-n8:16:32:64-S128"
target triple = "x86_64-pc-linux-gnu"

; Function Attrs: inlinehint mustprogress nounwind uwtable
define linkonce_odr noundef nonnull align 4 dereferenceable(4) ptr @_ZSt3minIiERKT_S2_S2_(ptr noundef nonnull align 4 dereferenceable(4) %0, ptr noundef nonnull align 4 dereferenceable(4) %1) #0 comdat {
  %3 = alloca ptr, align 8
  %4 = alloca ptr, align 8
  %5 = alloca ptr, align 8
  store ptr %0, ptr %4, align 8, !tbaa !179
  store ptr %1, ptr %5, align 8, !tbaa !179
  %6 = load ptr, ptr %5, align 8, !tbaa !179
  %7 = load i32, ptr %6, align 4, !tbaa !48
  %8 = load ptr, ptr %4, align 8, !tbaa !179
  %9 = load i32, ptr %8, align 4, !tbaa !48
  %10 = icmp slt i32 %7, %9
  br i1 %10, label %11, label %13

11:                                               ; preds = %2
  %12 = load ptr, ptr %5, align 8, !tbaa !179
  store ptr %12, ptr %3, align 8
  br label %15

13:                                               ; preds = %2
  %14 = load ptr, ptr %4, align 8, !tbaa !179
  store ptr %14, ptr %3, align 8
  br label %15

15:                                               ; preds = %13, %11
  %16 = load ptr, ptr %3, align 8
  ret ptr %16
}

; Function Attrs: inlinehint mustprogress nounwind uwtable
define linkonce_odr noundef nonnull align 4 dereferenceable(4) ptr @_ZSt3maxIiERKT_S2_S2_(ptr noundef nonnull align 4 dereferenceable(4) %0, ptr noundef nonnull align 4 dereferenceable(4) %1) #0 comdat {
  %3 = alloca ptr, align 8
  %4 = alloca ptr, align 8
  %5 = alloca ptr, align 8
  store ptr %0, ptr %4, align 8, !tbaa !179
  store ptr %1, ptr %5, align 8, !tbaa !179
  %6 = load ptr, ptr %4, align 8, !tbaa !179
  %7 = load i32, ptr %6, align 4, !tbaa !48
  %8 = load ptr, ptr %5, align 8, !tbaa !179
  %9 = load i32, ptr %8, align 4, !tbaa !48
  %10 = icmp slt i32 %7, %9
  br i1 %10, label %11, label %13

11:                                               ; preds = %2
  %12 = load ptr, ptr %5, align 8, !tbaa !179
  store ptr %12, ptr %3, align 8
  br label %15

13:                                               ; preds = %2
  %14 = load ptr, ptr %4, align 8, !tbaa !179
  store ptr %14, ptr %3, align 8
  br label %15

15:                                               ; preds = %13, %11
  %16 = load ptr, ptr %3, align 8
  ret ptr %16
}

; Function Attrs: mustprogress uwtable
define internal void @_ZN4ncnnL44convolution_im2col_gemm_get_optimal_tile_mnkEiiiRiS0_S0_i(i32 noundef %0, i32 noundef %1, i32 noundef %2, ptr noundef nonnull align 4 dereferenceable(4) %3, ptr noundef nonnull align 4 dereferenceable(4) %4, ptr noundef nonnull align 4 dereferenceable(4) %5, i32 noundef %6) #2 {
  %8 = alloca i32, align 4
  %9 = alloca i32, align 4
  %10 = alloca i32, align 4
  %11 = alloca ptr, align 8
  %12 = alloca ptr, align 8
  %13 = alloca ptr, align 8
  %14 = alloca i32, align 4
  %15 = alloca i32, align 4
  %16 = alloca i32, align 4
  %17 = alloca i32, align 4
  %18 = alloca i32, align 4
  %19 = alloca i32, align 4
  %20 = alloca i32, align 4
  %21 = alloca i32, align 4
  %22 = alloca i32, align 4
  %23 = alloca i32, align 4
  %24 = alloca i32, align 4
  %25 = alloca i32, align 4
  %26 = alloca i32, align 4
  %27 = alloca i32, align 4
  %28 = alloca i32, align 4
  %29 = alloca i32, align 4
  %30 = alloca i32, align 4
  %31 = alloca i32, align 4
  %32 = alloca i32, align 4
  %33 = alloca i32, align 4
  %34 = alloca i32, align 4
  %35 = alloca i32, align 4
  store i32 %0, ptr %8, align 4, !tbaa !48
  store i32 %1, ptr %9, align 4, !tbaa !48
  store i32 %2, ptr %10, align 4, !tbaa !48
  store ptr %3, ptr %11, align 8, !tbaa !179
  store ptr %4, ptr %12, align 8, !tbaa !179
  store ptr %5, ptr %13, align 8, !tbaa !179
  store i32 %6, ptr %14, align 4, !tbaa !48
  call void @llvm.lifetime.start.p0(i64 4, ptr %15) #14
  %36 = call noundef i32 @_ZN4ncnn25get_cpu_level2_cache_sizeEv()
  %37 = sext i32 %36 to i64
  %38 = udiv i64 %37, 4
  %39 = trunc i64 %38 to i32
  store i32 %39, ptr %15, align 4, !tbaa !48
  %40 = load i32, ptr %14, align 4, !tbaa !48
  %41 = icmp eq i32 %40, 0
  br i1 %41, label %42, label %44

42:                                               ; preds = %7
  %43 = call noundef i32 @_ZN4ncnn26get_physical_big_cpu_countEv()
  store i32 %43, ptr %14, align 4, !tbaa !48
  br label %44

44:                                               ; preds = %42, %7
  call void @llvm.lifetime.start.p0(i64 4, ptr %16) #14
  %45 = load i32, ptr %15, align 4, !tbaa !48
  %46 = sub nsw i32 %45, 32
  %47 = sdiv i32 %46, 8
  store i32 %47, ptr %16, align 4, !tbaa !48
  call void @llvm.lifetime.start.p0(i64 4, ptr %17) #14
  store i32 8, ptr %17, align 4, !tbaa !48
  call void @llvm.lifetime.start.p0(i64 4, ptr %18) #14
  %48 = load i32, ptr %16, align 4, !tbaa !48
  %49 = sdiv i32 %48, 8
  %50 = mul nsw i32 %49, 8
  store i32 %50, ptr %18, align 4, !tbaa !48
  %51 = call noundef nonnull align 4 dereferenceable(4) ptr @_ZSt3maxIiERKT_S2_S2_(ptr noundef nonnull align 4 dereferenceable(4) %17, ptr noundef nonnull align 4 dereferenceable(4) %18)
  %52 = load i32, ptr %51, align 4, !tbaa !48
  %53 = load ptr, ptr %13, align 8, !tbaa !179
  store i32 %52, ptr %53, align 4, !tbaa !48
  call void @llvm.lifetime.end.p0(i64 4, ptr %18) #14
  call void @llvm.lifetime.end.p0(i64 4, ptr %17) #14
  call void @llvm.lifetime.start.p0(i64 4, ptr %19) #14
  %54 = load i32, ptr %10, align 4, !tbaa !48
  %55 = load ptr, ptr %13, align 8, !tbaa !179
  %56 = load i32, ptr %55, align 4, !tbaa !48
  %57 = add nsw i32 %54, %56
  %58 = sub nsw i32 %57, 1
  %59 = load ptr, ptr %13, align 8, !tbaa !179
  %60 = load i32, ptr %59, align 4, !tbaa !48
  %61 = sdiv i32 %58, %60
  store i32 %61, ptr %19, align 4, !tbaa !48
  %62 = load ptr, ptr %13, align 8, !tbaa !179
  call void @llvm.lifetime.start.p0(i64 4, ptr %20) #14
  %63 = load i32, ptr %10, align 4, !tbaa !48
  %64 = load i32, ptr %19, align 4, !tbaa !48
  %65 = add nsw i32 %63, %64
  %66 = sub nsw i32 %65, 1
  %67 = load i32, ptr %19, align 4, !tbaa !48
  %68 = sdiv i32 %66, %67
  %69 = add nsw i32 %68, 7
  %70 = sdiv i32 %69, 8
  %71 = mul nsw i32 %70, 8
  store i32 %71, ptr %20, align 4, !tbaa !48
  %72 = call noundef nonnull align 4 dereferenceable(4) ptr @_ZSt3minIiERKT_S2_S2_(ptr noundef nonnull align 4 dereferenceable(4) %62, ptr noundef nonnull align 4 dereferenceable(4) %20)
  %73 = load i32, ptr %72, align 4, !tbaa !48
  %74 = load ptr, ptr %13, align 8, !tbaa !179
  store i32 %73, ptr %74, align 4, !tbaa !48
  call void @llvm.lifetime.end.p0(i64 4, ptr %20) #14
  call void @llvm.lifetime.end.p0(i64 4, ptr %19) #14
  call void @llvm.lifetime.end.p0(i64 4, ptr %16) #14
  call void @llvm.lifetime.start.p0(i64 4, ptr %21) #14
  %75 = load i32, ptr %8, align 4, !tbaa !48
  %76 = add nsw i32 %75, 31
  %77 = sdiv i32 %76, 32
  store i32 %77, ptr %21, align 4, !tbaa !48
  call void @llvm.lifetime.start.p0(i64 4, ptr %22) #14
  store i32 8, ptr %22, align 4, !tbaa !48
  call void @llvm.lifetime.start.p0(i64 4, ptr %23) #14
  %78 = load i32, ptr %8, align 4, !tbaa !48
  %79 = load i32, ptr %21, align 4, !tbaa !48
  %80 = add nsw i32 %78, %79
  %81 = sub nsw i32 %80, 1
  %82 = load i32, ptr %21, align 4, !tbaa !48
  %83 = sdiv i32 %81, %82
  %84 = add nsw i32 %83, 7
  %85 = sdiv i32 %84, 8
  %86 = mul nsw i32 %85, 8
  store i32 %86, ptr %23, align 4, !tbaa !48
  %87 = call noundef nonnull align 4 dereferenceable(4) ptr @_ZSt3maxIiERKT_S2_S2_(ptr noundef nonnull align 4 dereferenceable(4) %22, ptr noundef nonnull align 4 dereferenceable(4) %23)
  %88 = load i32, ptr %87, align 4, !tbaa !48
  %89 = load ptr, ptr %11, align 8, !tbaa !179
  store i32 %88, ptr %89, align 4, !tbaa !48
  call void @llvm.lifetime.end.p0(i64 4, ptr %23) #14
  call void @llvm.lifetime.end.p0(i64 4, ptr %22) #14
  call void @llvm.lifetime.end.p0(i64 4, ptr %21) #14
  call void @llvm.lifetime.start.p0(i64 4, ptr %24) #14
  %90 = call noundef i32 @_ZN4ncnn22get_physical_cpu_countEv()
  store i32 %90, ptr %24, align 4, !tbaa !48
  %91 = call noundef nonnull align 4 dereferenceable(4) ptr @_ZSt3minIiERKT_S2_S2_(ptr noundef nonnull align 4 dereferenceable(4) %14, ptr noundef nonnull align 4 dereferenceable(4) %24)
  %92 = load i32, ptr %91, align 4, !tbaa !48
  %93 = load ptr, ptr %11, align 8, !tbaa !179
  %94 = load i32, ptr %93, align 4, !tbaa !48
  %95 = mul nsw i32 %94, %92
  store i32 %95, ptr %93, align 4, !tbaa !48
  call void @llvm.lifetime.end.p0(i64 4, ptr %24) #14
  call void @llvm.lifetime.start.p0(i64 4, ptr %25) #14
  %96 = load i32, ptr %8, align 4, !tbaa !48
  %97 = load ptr, ptr %11, align 8, !tbaa !179
  %98 = load i32, ptr %97, align 4, !tbaa !48
  %99 = add nsw i32 %96, %98
  %100 = sub nsw i32 %99, 1
  %101 = load ptr, ptr %11, align 8, !tbaa !179
  %102 = load i32, ptr %101, align 4, !tbaa !48
  %103 = sdiv i32 %100, %102
  store i32 %103, ptr %25, align 4, !tbaa !48
  %104 = load ptr, ptr %11, align 8, !tbaa !179
  call void @llvm.lifetime.start.p0(i64 4, ptr %26) #14
  %105 = load i32, ptr %8, align 4, !tbaa !48
  %106 = load i32, ptr %25, align 4, !tbaa !48
  %107 = add nsw i32 %105, %106
  %108 = sub nsw i32 %107, 1
  %109 = load i32, ptr %25, align 4, !tbaa !48
  %110 = sdiv i32 %108, %109
  %111 = add nsw i32 %110, 7
  %112 = sdiv i32 %111, 8
  %113 = mul nsw i32 %112, 8
  store i32 %113, ptr %26, align 4, !tbaa !48
  %114 = call noundef nonnull align 4 dereferenceable(4) ptr @_ZSt3minIiERKT_S2_S2_(ptr noundef nonnull align 4 dereferenceable(4) %104, ptr noundef nonnull align 4 dereferenceable(4) %26)
  %115 = load i32, ptr %114, align 4, !tbaa !48
  %116 = load ptr, ptr %11, align 8, !tbaa !179
  store i32 %115, ptr %116, align 4, !tbaa !48
  call void @llvm.lifetime.end.p0(i64 4, ptr %26) #14
  %117 = load i32, ptr %14, align 4, !tbaa !48
  %118 = icmp sgt i32 %117, 1
  br i1 %118, label %119, label %133

119:                                              ; preds = %44
  %120 = load ptr, ptr %11, align 8, !tbaa !179
  call void @llvm.lifetime.start.p0(i64 4, ptr %27) #14
  call void @llvm.lifetime.start.p0(i64 4, ptr %28) #14
  store i32 1, ptr %28, align 4, !tbaa !48
  call void @llvm.lifetime.start.p0(i64 4, ptr %29) #14
  %121 = load ptr, ptr %11, align 8, !tbaa !179
  %122 = load i32, ptr %121, align 4, !tbaa !48
  %123 = load i32, ptr %14, align 4, !tbaa !48
  %124 = sdiv i32 %122, %123
  store i32 %124, ptr %29, align 4, !tbaa !48
  %125 = call noundef nonnull align 4 dereferenceable(4) ptr @_ZSt3maxIiERKT_S2_S2_(ptr noundef nonnull align 4 dereferenceable(4) %28, ptr noundef nonnull align 4 dereferenceable(4) %29)
  %126 = load i32, ptr %125, align 4, !tbaa !48
  %127 = add nsw i32 %126, 7
  %128 = sdiv i32 %127, 8
  %129 = mul nsw i32 %128, 8
  store i32 %129, ptr %27, align 4, !tbaa !48
  %130 = call noundef nonnull align 4 dereferenceable(4) ptr @_ZSt3minIiERKT_S2_S2_(ptr noundef nonnull align 4 dereferenceable(4) %120, ptr noundef nonnull align 4 dereferenceable(4) %27)
  %131 = load i32, ptr %130, align 4, !tbaa !48
  %132 = load ptr, ptr %11, align 8, !tbaa !179
  store i32 %131, ptr %132, align 4, !tbaa !48
  call void @llvm.lifetime.end.p0(i64 4, ptr %29) #14
  call void @llvm.lifetime.end.p0(i64 4, ptr %28) #14
  call void @llvm.lifetime.end.p0(i64 4, ptr %27) #14
  br label %133

133:                                              ; preds = %119, %44
  call void @llvm.lifetime.end.p0(i64 4, ptr %25) #14
  %134 = load i32, ptr %9, align 4, !tbaa !48
  %135 = icmp sgt i32 %134, 0
  br i1 %135, label %136, label %198

136:                                              ; preds = %133
  call void @llvm.lifetime.start.p0(i64 4, ptr %30) #14
  %137 = load ptr, ptr %13, align 8, !tbaa !179
  %138 = load i32, ptr %137, align 4, !tbaa !48
  %139 = load i32, ptr %10, align 4, !tbaa !48
  %140 = icmp sge i32 %138, %139
  br i1 %140, label %141, label %152

141:                                              ; preds = %136
  %142 = load i32, ptr %15, align 4, !tbaa !48
  %143 = load ptr, ptr %11, align 8, !tbaa !179
  %144 = load i32, ptr %143, align 4, !tbaa !48
  %145 = load ptr, ptr %13, align 8, !tbaa !179
  %146 = load i32, ptr %145, align 4, !tbaa !48
  %147 = mul nsw i32 %144, %146
  %148 = sub nsw i32 %142, %147
  %149 = load ptr, ptr %13, align 8, !tbaa !179
  %150 = load i32, ptr %149, align 4, !tbaa !48
  %151 = sdiv i32 %148, %150
  store i32 %151, ptr %30, align 4, !tbaa !48
  br label %166

152:                                              ; preds = %136
  %153 = load i32, ptr %15, align 4, !tbaa !48
  %154 = load ptr, ptr %11, align 8, !tbaa !179
  %155 = load i32, ptr %154, align 4, !tbaa !48
  %156 = load ptr, ptr %13, align 8, !tbaa !179
  %157 = load i32, ptr %156, align 4, !tbaa !48
  %158 = mul nsw i32 %155, %157
  %159 = sub nsw i32 %153, %158
  %160 = load ptr, ptr %11, align 8, !tbaa !179
  %161 = load i32, ptr %160, align 4, !tbaa !48
  %162 = load ptr, ptr %13, align 8, !tbaa !179
  %163 = load i32, ptr %162, align 4, !tbaa !48
  %164 = add nsw i32 %161, %163
  %165 = sdiv i32 %159, %164
  store i32 %165, ptr %30, align 4, !tbaa !48
  br label %166

166:                                              ; preds = %152, %141
  call void @llvm.lifetime.start.p0(i64 4, ptr %31) #14
  store i32 4, ptr %31, align 4, !tbaa !48
  call void @llvm.lifetime.start.p0(i64 4, ptr %32) #14
  %167 = load i32, ptr %30, align 4, !tbaa !48
  %168 = sdiv i32 %167, 4
  %169 = mul nsw i32 %168, 4
  store i32 %169, ptr %32, align 4, !tbaa !48
  %170 = call noundef nonnull align 4 dereferenceable(4) ptr @_ZSt3maxIiERKT_S2_S2_(ptr noundef nonnull align 4 dereferenceable(4) %31, ptr noundef nonnull align 4 dereferenceable(4) %32)
  %171 = load i32, ptr %170, align 4, !tbaa !48
  %172 = load ptr, ptr %12, align 8, !tbaa !179
  store i32 %171, ptr %172, align 4, !tbaa !48
  call void @llvm.lifetime.end.p0(i64 4, ptr %32) #14
  call void @llvm.lifetime.end.p0(i64 4, ptr %31) #14
  call void @llvm.lifetime.start.p0(i64 4, ptr %33) #14
  %173 = load i32, ptr %9, align 4, !tbaa !48
  %174 = load ptr, ptr %12, align 8, !tbaa !179
  %175 = load i32, ptr %174, align 4, !tbaa !48
  %176 = add nsw i32 %173, %175
  %177 = sub nsw i32 %176, 1
  %178 = load ptr, ptr %12, align 8, !tbaa !179
  %179 = load i32, ptr %178, align 4, !tbaa !48
  %180 = sdiv i32 %177, %179
  store i32 %180, ptr %33, align 4, !tbaa !48
  %181 = load ptr, ptr %12, align 8, !tbaa !179
  call void @llvm.lifetime.start.p0(i64 4, ptr %34) #14
  %182 = load i32, ptr %9, align 4, !tbaa !48
  %183 = load i32, ptr %33, align 4, !tbaa !48
  %184 = add nsw i32 %182, %183
  %185 = sub nsw i32 %184, 1
  %186 = load i32, ptr %33, align 4, !tbaa !48
  %187 = sdiv i32 %185, %186
  %188 = add nsw i32 %187, 3
  %189 = sdiv i32 %188, 4
  %190 = mul nsw i32 %189, 4
  store i32 %190, ptr %34, align 4, !tbaa !48
  %191 = call noundef nonnull align 4 dereferenceable(4) ptr @_ZSt3minIiERKT_S2_S2_(ptr noundef nonnull align 4 dereferenceable(4) %181, ptr noundef nonnull align 4 dereferenceable(4) %34)
  %192 = load i32, ptr %191, align 4, !tbaa !48
  %193 = load ptr, ptr %12, align 8, !tbaa !179
  store i32 %192, ptr %193, align 4, !tbaa !48
  call void @llvm.lifetime.end.p0(i64 4, ptr %34) #14
  call void @llvm.lifetime.start.p0(i64 4, ptr %35) #14
  store i32 4, ptr %35, align 4, !tbaa !48
  %194 = load ptr, ptr %12, align 8, !tbaa !179
  %195 = call noundef nonnull align 4 dereferenceable(4) ptr @_ZSt3maxIiERKT_S2_S2_(ptr noundef nonnull align 4 dereferenceable(4) %35, ptr noundef nonnull align 4 dereferenceable(4) %194)
  %196 = load i32, ptr %195, align 4, !tbaa !48
  %197 = load ptr, ptr %12, align 8, !tbaa !179
  store i32 %196, ptr %197, align 4, !tbaa !48
  call void @llvm.lifetime.end.p0(i64 4, ptr %35) #14
  call void @llvm.lifetime.end.p0(i64 4, ptr %33) #14
  call void @llvm.lifetime.end.p0(i64 4, ptr %30) #14
  br label %198

198:                                              ; preds = %166, %133
  call void @llvm.lifetime.end.p0(i64 4, ptr %15) #14
  ret void
}